target datalayout = "e-m:e-p270:32:32-p271:32:32-p272:64:64-i64:64-i128:128-f80:128-n8:16:32:64-S128"
target triple = "x86_64-pc-linux-gnu"

%"class.o3dgc::DynamicVectorEncoder" = type <{ i64, i64, i64, i64, i64, ptr, ptr, i32, [4 x i8] }>
%"class.o3dgc::BinaryStream" = type <{ %"class.o3dgc::Vector", i32, [4 x i8] }>
%"class.o3dgc::Vector" = type { ptr, i64, i64 }

; Function Attrs: mustprogress nounwind uwtable
define linkonce_odr hidden noundef nonnull align 1 dereferenceable(1) ptr @_ZN5o3dgc6VectorIhEixEm(ptr noundef nonnull align 8 dereferenceable(24) %0, i64 noundef %1) #0 comdat align 2 {
  %3 = alloca ptr, align 8
  %4 = alloca i64, align 8
  store ptr %0, ptr %3, align 8
  store i64 %1, ptr %4, align 8
  %5 = load ptr, ptr %3, align 8
  %6 = getelementptr inbounds nuw %"class.o3dgc::Vector", ptr %5, i32 0, i32 0
  %7 = load ptr, ptr %6, align 8
  %8 = load i64, ptr %4, align 8
  %9 = getelementptr inbounds nuw i8, ptr %7, i64 %8
  ret ptr %9
}

; Function Attrs: mustprogress nounwind uwtable
define linkonce_odr hidden void @_ZN5o3dgc12BinaryStream14WriteUInt32BinEmm(ptr noundef nonnull align 8 dereferenceable(28) %0, i64 noundef %1, i64 noundef %2) #0 comdat align 2 {
  %4 = alloca ptr, align 8
  %5 = alloca i64, align 8
  %6 = alloca i64, align 8
  %7 = alloca ptr, align 8
  store ptr %0, ptr %4, align 8
  store i64 %1, ptr %5, align 8
  store i64 %2, ptr %6, align 8
  %8 = load ptr, ptr %4, align 8
  call void @llvm.lifetime.start.p0(i64 8, ptr %7) #12
  store ptr %6, ptr %7, align 8
  %9 = getelementptr inbounds nuw %"class.o3dgc::BinaryStream", ptr %8, i32 0, i32 1
  %10 = load i32, ptr %9, align 8
  %11 = icmp eq i32 %10, 0
  br i1 %11, label %12, label %40

12:                                               ; preds = %3
  %13 = load ptr, ptr %7, align 8
  %14 = getelementptr inbounds i8, ptr %13, i64 3
  %15 = load i8, ptr %14, align 1
  %16 = getelementptr inbounds nuw %"class.o3dgc::BinaryStream", ptr %8, i32 0, i32 0
  %17 = load i64, ptr %5, align 8
  %18 = add i64 %17, 1
  store i64 %18, ptr %5, align 8
  %19 = call noundef nonnull align 1 dereferenceable(1) ptr @_ZN5o3dgc6VectorIhEixEm(ptr noundef nonnull align 8 dereferenceable(24) %16, i64 noundef %17)
  store i8 %15, ptr %19, align 1
  %20 = load ptr, ptr %7, align 8
  %21 = getelementptr inbounds i8, ptr %20, i64 2
  %22 = load i8, ptr %21, align 1
  %23 = getelementptr inbounds nuw %"class.o3dgc::BinaryStream", ptr %8, i32 0, i32 0
  %24 = load i64, ptr %5, align 8
  %25 = add i64 %24, 1
  store i64 %25, ptr %5, align 8
  %26 = call noundef nonnull align 1 dereferenceable(1) ptr @_ZN5o3dgc6VectorIhEixEm(ptr noundef nonnull align 8 dereferenceable(24) %23, i64 noundef %24)
  store i8 %22, ptr %26, align 1
  %27 = load ptr, ptr %7, align 8
  %28 = getelementptr inbounds i8, ptr %27, i64 1
  %29 = load i8, ptr %28, align 1
  %30 = getelementptr inbounds nuw %"class.o3dgc::BinaryStream", ptr %8, i32 0, i32 0
  %31 = load i64, ptr %5, align 8
  %32 = add i64 %31, 1
  store i64 %32, ptr %5, align 8
  %33 = call noundef nonnull align 1 dereferenceable(1) ptr @_ZN5o3dgc6VectorIhEixEm(ptr noundef nonnull align 8 dereferenceable(24) %30, i64 noundef %31)
  store i8 %29, ptr %33, align 1
  %34 = load ptr, ptr %7, align 8
  %35 = getelementptr inbounds i8, ptr %34, i64 0
  %36 = load i8, ptr %35, align 1
  %37 = getelementptr inbounds nuw %"class.o3dgc::BinaryStream", ptr %8, i32 0, i32 0
  %38 = load i64, ptr %5, align 8
  %39 = call noundef nonnull align 1 dereferenceable(1) ptr @_ZN5o3dgc6VectorIhEixEm(ptr noundef nonnull align 8 dereferenceable(24) %37, i64 noundef %38)
  store i8 %36, ptr %39, align 1
  br label %68

40:                                               ; preds = %3
  %41 = load ptr, ptr %7, align 8
  %42 = getelementptr inbounds i8, ptr %41, i64 0
  %43 = load i8, ptr %42, align 1
  %44 = getelementptr inbounds nuw %"class.o3dgc::BinaryStream", ptr %8, i32 0, i32 0
  %45 = load i64, ptr %5, align 8
  %46 = add i64 %45, 1
  store i64 %46, ptr %5, align 8
  %47 = call noundef nonnull align 1 dereferenceable(1) ptr @_ZN5o3dgc6VectorIhEixEm(ptr noundef nonnull align 8 dereferenceable(24) %44, i64 noundef %45)
  store i8 %43, ptr %47, align 1
  %48 = load ptr, ptr %7, align 8
  %49 = getelementptr inbounds i8, ptr %48, i64 1
  %50 = load i8, ptr %49, align 1
  %51 = getelementptr inbounds nuw %"class.o3dgc::BinaryStream", ptr %8, i32 0, i32 0
  %52 = load i64, ptr %5, align 8
  %53 = add i64 %52, 1
  store i64 %53, ptr %5, align 8
  %54 = call noundef nonnull align 1 dereferenceable(1) ptr @_ZN5o3dgc6VectorIhEixEm(ptr noundef nonnull align 8 dereferenceable(24) %51, i64 noundef %52)
  store i8 %50, ptr %54, align 1
  %55 = load ptr, ptr %7, align 8
  %56 = getelementptr inbounds i8, ptr %55, i64 2
  %57 = load i8, ptr %56, align 1
  %58 = getelementptr inbounds nuw %"class.o3dgc::BinaryStream", ptr %8, i32 0, i32 0
  %59 = load i64, ptr %5, align 8
  %60 = add i64 %59, 1
  store i64 %60, ptr %5, align 8
  %61 = call noundef nonnull align 1 dereferenceable(1) ptr @_ZN5o3dgc6VectorIhEixEm(ptr noundef nonnull align 8 dereferenceable(24) %58, i64 noundef %59)
  store i8 %57, ptr %61, align 1
  %62 = load ptr, ptr %7, align 8
  %63 = getelementptr inbounds i8, ptr %62, i64 3
  %64 = load i8, ptr %63, align 1
  %65 = getelementptr inbounds nuw %"class.o3dgc::BinaryStream", ptr %8, i32 0, i32 0
  %66 = load i64, ptr %5, align 8
  %67 = call noundef nonnull align 1 dereferenceable(1) ptr @_ZN5o3dgc6VectorIhEixEm(ptr noundef nonnull align 8 dereferenceable(24) %65, i64 noundef %66)
  store i8 %64, ptr %67, align 1
  br label %68

68:                                               ; preds = %40, %12
  call void @llvm.lifetime.end.p0(i64 8, ptr %7) #12
  ret void
}

; Function Attrs: mustprogress uwtable
define linkonce_odr hidden void @_ZN5o3dgc12BinaryStream16WriteUInt32ASCIIEmm(ptr noundef nonnull align 8 dereferenceable(28) %0, i64 noundef %1, i64 noundef %2) #2 comdat align 2 {
  %4 = alloca ptr, align 8
  %5 = alloca i64, align 8
  %6 = alloca i64, align 8
  %7 = alloca i64, align 8
  %8 = alloca i64, align 8
  store ptr %0, ptr %4, align 8
  store i64 %1, ptr %5, align 8
  store i64 %2, ptr %6, align 8
  %9 = load ptr, ptr %4, align 8
  call void @llvm.lifetime.start.p0(i64 8, ptr %7) #12
  %10 = load i64, ptr %6, align 8
  store i64 %10, ptr %7, align 8
  call void @llvm.lifetime.start.p0(i64 8, ptr %8) #12
  store i64 0, ptr %8, align 8
  br label %11

11:                                               ; preds = %25, %3
  %12 = load i64, ptr %8, align 8
  %13 = icmp ult i64 %12, 5
  br i1 %13, label %15, label %14

14:                                               ; preds = %11
  call void @llvm.lifetime.end.p0(i64 8, ptr %8) #12
  br label %28

15:                                               ; preds = %11
  %16 = load i64, ptr %7, align 8
  %17 = and i64 %16, 127
  %18 = trunc i64 %17 to i8
  %19 = getelementptr inbounds nuw %"class.o3dgc::BinaryStream", ptr %9, i32 0, i32 0
  %20 = load i64, ptr %5, align 8
  %21 = add i64 %20, 1
  store i64 %21, ptr %5, align 8
  %22 = call noundef nonnull align 1 dereferenceable(1) ptr @_ZN5o3dgc6VectorIhEixEm(ptr noundef nonnull align 8 dereferenceable(24) %19, i64 noundef %20)
  store i8 %18, ptr %22, align 1
  %23 = load i64, ptr %7, align 8
  %24 = lshr i64 %23, 7
  store i64 %24, ptr %7, align 8
  br label %25

25:                                               ; preds = %15
  %26 = load i64, ptr %8, align 8
  %27 = add i64 %26, 1
  store i64 %27, ptr %8, align 8
  br label %11, !llvm.loop !17

28:                                               ; preds = %14
  call void @llvm.lifetime.end.p0(i64 8, ptr %7) #12
  ret void
}

; Function Attrs: mustprogress nounwind uwtable
define linkonce_odr hidden noundef i64 @_ZNK5o3dgc6VectorIhE7GetSizeEv(ptr noundef nonnull align 8 dereferenceable(24) %0) #0 comdat align 2 {
  %2 = alloca ptr, align 8
  store ptr %0, ptr %2, align 8
  %3 = load ptr, ptr %2, align 8
  %4 = getelementptr inbounds nuw %"class.o3dgc::Vector", ptr %3, i32 0, i32 2
  %5 = load i64, ptr %4, align 8
  ret i64 %5
}

; Function Attrs: mustprogress uwtable
define linkonce_odr hidden void @_ZN5o3dgc12BinaryStream11WriteUInt32EmmNS_15O3DGCStreamTypeE(ptr noundef nonnull align 8 dereferenceable(28) %0, i64 noundef %1, i64 noundef %2, i32 noundef %3) #2 comdat align 2 {
  %5 = alloca ptr, align 8
  %6 = alloca i64, align 8
  %7 = alloca i64, align 8
  %8 = alloca i32, align 4
  store ptr %0, ptr %5, align 8
  store i64 %1, ptr %6, align 8
  store i64 %2, ptr %7, align 8
  store i32 %3, ptr %8, align 4
  %9 = load ptr, ptr %5, align 8
  %10 = load i32, ptr %8, align 4
  %11 = icmp eq i32 %10, 1
  br i1 %11, label %12, label %15

12:                                               ; preds = %4
  %13 = load i64, ptr %6, align 8
  %14 = load i64, ptr %7, align 8
  call void @_ZN5o3dgc12BinaryStream16WriteUInt32ASCIIEmm(ptr noundef nonnull align 8 dereferenceable(28) %9, i64 noundef %13, i64 noundef %14)
  br label %18

15:                                               ; preds = %4
  %16 = load i64, ptr %6, align 8
  %17 = load i64, ptr %7, align 8
  call void @_ZN5o3dgc12BinaryStream14WriteUInt32BinEmm(ptr noundef nonnull align 8 dereferenceable(28) %9, i64 noundef %16, i64 noundef %17)
  br label %18

18:                                               ; preds = %15, %12
  ret void
}

; Function Attrs: mustprogress uwtable
define linkonce_odr hidden noundef i64 @_ZNK5o3dgc12BinaryStream7GetSizeEv(ptr noundef nonnull align 8 dereferenceable(28) %0) #2 comdat align 2 {
  %2 = alloca ptr, align 8
  store ptr %0, ptr %2, align 8
  %3 = load ptr, ptr %2, align 8
  %4 = getelementptr inbounds nuw %"class.o3dgc::BinaryStream", ptr %3, i32 0, i32 0
  %5 = call noundef i64 @_ZNK5o3dgc6VectorIhE7GetSizeEv(ptr noundef nonnull align 8 dereferenceable(24) %4)
  ret i64 %5
}

; Function Attrs: mustprogress uwtable
define hidden noundef i32 @_ZN5o3dgc20DynamicVectorEncoder6EncodeERKNS_14DVEncodeParamsERKNS_13DynamicVectorERNS_12BinaryStreamE(ptr noundef nonnull align 8 dereferenceable(60) %0, ptr noundef nonnull align 8 dereferenceable(16) %1, ptr noundef nonnull align 8 dereferenceable(48) %2, ptr noundef nonnull align 8 dereferenceable(28) %3) #2 align 2 {
  %5 = alloca ptr, align 8
  %6 = alloca ptr, align 8
  %7 = alloca ptr, align 8
  %8 = alloca ptr, align 8
  %9 = alloca i64, align 8
  store ptr %0, ptr %5, align 8
  store ptr %1, ptr %6, align 8
  store ptr %2, ptr %7, align 8
  store ptr %3, ptr %8, align 8
  %10 = load ptr, ptr %5, align 8
  call void @llvm.lifetime.start.p0(i64 8, ptr %9) #12
  %11 = load ptr, ptr %8, align 8
  %12 = call noundef i64 @_ZNK5o3dgc12BinaryStream7GetSizeEv(ptr noundef nonnull align 8 dereferenceable(28) %11)
  store i64 %12, ptr %9, align 8
  %13 = load ptr, ptr %6, align 8
  %14 = load ptr, ptr %7, align 8
  %15 = load ptr, ptr %8, align 8
  %16 = call noundef i32 @_ZN5o3dgc20DynamicVectorEncoder12EncodeHeaderERKNS_14DVEncodeParamsERKNS_13DynamicVectorERNS_12BinaryStreamE(ptr noundef nonnull align 8 dereferenceable(60) %10, ptr noundef nonnull align 8 dereferenceable(16) %13, ptr noundef nonnull align 8 dereferenceable(48) %14, ptr noundef nonnull align 8 dereferenceable(28) %15)
  %17 = load ptr, ptr %6, align 8
  %18 = load ptr, ptr %7, align 8
  %19 = load ptr, ptr %8, align 8
  %20 = call noundef i32 @_ZN5o3dgc20DynamicVectorEncoder13EncodePayloadERKNS_14DVEncodeParamsERKNS_13DynamicVectorERNS_12BinaryStreamE(ptr noundef nonnull align 8 dereferenceable(60) %10, ptr noundef nonnull align 8 dereferenceable(16) %17, ptr noundef nonnull align 8 dereferenceable(48) %18, ptr noundef nonnull align 8 dereferenceable(28) %19)
  %21 = load ptr, ptr %8, align 8
  %22 = getelementptr inbounds nuw %"class.o3dgc::DynamicVectorEncoder", ptr %10, i32 0, i32 0
  %23 = load i64, ptr %22, align 8
  %24 = load ptr, ptr %8, align 8
  %25 = call noundef i64 @_ZNK5o3dgc12BinaryStream7GetSizeEv(ptr noundef nonnull align 8 dereferenceable(28) %24)
  %26 = load i64, ptr %9, align 8
  %27 = sub i64 %25, %26
  %28 = getelementptr inbounds nuw %"class.o3dgc::DynamicVectorEncoder", ptr %10, i32 0, i32 7
  %29 = load i32, ptr %28, align 8
  call void @_ZN5o3dgc12BinaryStream11WriteUInt32EmmNS_15O3DGCStreamTypeE(ptr noundef nonnull align 8 dereferenceable(28) %21, i64 noundef %23, i64 noundef %27, i32 noundef %29)
  call void @llvm.lifetime.end.p0(i64 8, ptr %9) #12
  ret i32 0
}