; Function Attrs: mustprogress uwtable
define hidden noundef i32 @_ZN5o3dgc20DynamicVectorEncoder6EncodeERKNS_14DVEncodeParamsERKNS_13DynamicVectorERNS_12BinaryStreamE(ptr noundef nonnull align 8 captures(none) dereferenceable(60) initializes((56, 60)) %0, ptr noundef nonnull readonly align 8 captures(none) dereferenceable(16) %1, ptr noundef nonnull readonly align 8 captures(none) dereferenceable(48) %2, ptr noundef nonnull align 8 dereferenceable(28) %3) local_unnamed_addr #3 align 2 {
  %5 = getelementptr inbounds nuw i8, ptr %3, i64 16
  %6 = load i64, ptr %5, align 8
  %7 = tail call noundef i32 @_ZN5o3dgc20DynamicVectorEncoder12EncodeHeaderERKNS_14DVEncodeParamsERKNS_13DynamicVectorERNS_12BinaryStreamE(ptr noundef nonnull align 8 dereferenceable(60) %0, ptr noundef nonnull align 8 dereferenceable(16) %1, ptr noundef nonnull align 8 dereferenceable(48) %2, ptr noundef nonnull align 8 dereferenceable(28) %3)
  %8 = tail call noundef i32 @_ZN5o3dgc20DynamicVectorEncoder13EncodePayloadERKNS_14DVEncodeParamsERKNS_13DynamicVectorERNS_12BinaryStreamE(ptr noundef nonnull align 8 dereferenceable(60) %0, ptr noundef nonnull align 8 dereferenceable(16) %1, ptr noundef nonnull align 8 dereferenceable(48) %2, ptr noundef nonnull align 8 dereferenceable(28) %3)
  %9 = load i64, ptr %0, align 8
  %10 = load i64, ptr %5, align 8
  %11 = sub i64 %10, %6
  %12 = getelementptr inbounds nuw i8, ptr %0, i64 56
  %13 = load i32, ptr %12, align 8
  %14 = icmp eq i32 %13, 1
  br i1 %14, label %.preheader.i, label %22

.preheader.i:                                     ; preds = %4, %.preheader.i
  %.010.i.i = phi i64 [ %21, %.preheader.i ], [ 0, %4 ]
  %.069.i.i = phi i64 [ %20, %.preheader.i ], [ %11, %4 ]
  %.078.i.i = phi i64 [ %17, %.preheader.i ], [ %9, %4 ]
  %15 = trunc i64 %.069.i.i to i8
  %16 = and i8 %15, 127
  %17 = add i64 %.078.i.i, 1
  %18 = load ptr, ptr %3, align 8
  %19 = getelementptr inbounds nuw i8, ptr %18, i64 %.078.i.i
  store i8 %16, ptr %19, align 1
  %20 = lshr i64 %.069.i.i, 7
  %21 = add nuw nsw i64 %.010.i.i, 1
  %exitcond.not.i.i = icmp eq i64 %21, 5
  br i1 %exitcond.not.i.i, label %_ZN5o3dgc12BinaryStream11WriteUInt32EmmNS_15O3DGCStreamTypeE.exit, label %.preheader.i, !llvm.loop !3

22:                                               ; preds = %4
  %.sroa.0.0.extract.trunc.i.i = trunc i64 %11 to i8
  %.sroa.3.0.extract.shift.i.i = lshr i64 %11, 8
  %.sroa.3.0.extract.trunc.i.i = trunc i64 %.sroa.3.0.extract.shift.i.i to i8
  %.sroa.5.0.extract.shift.i.i = lshr i64 %11, 16
  %.sroa.5.0.extract.trunc.i.i = trunc i64 %.sroa.5.0.extract.shift.i.i to i8
  %.sroa.7.0.extract.shift.i.i = lshr i64 %11, 24
  %.sroa.7.0.extract.trunc.i.i = trunc i64 %.sroa.7.0.extract.shift.i.i to i8
  %23 = getelementptr inbounds nuw i8, ptr %3, i64 24
  %24 = load i32, ptr %23, align 8
  %25 = icmp eq i32 %24, 0
  %26 = load ptr, ptr %3, align 8
  %27 = getelementptr inbounds nuw i8, ptr %26, i64 %9
  %.sroa.7.0.extract.trunc..sroa.0.0.extract.trunc.i.i = select i1 %25, i8 %.sroa.7.0.extract.trunc.i.i, i8 %.sroa.0.0.extract.trunc.i.i
  %.sroa.5.0.extract.trunc..sroa.3.0.extract.trunc.i.i = select i1 %25, i8 %.sroa.5.0.extract.trunc.i.i, i8 %.sroa.3.0.extract.trunc.i.i
  %.sroa.3.0.extract.trunc..sroa.5.0.extract.trunc.i.i = select i1 %25, i8 %.sroa.3.0.extract.trunc.i.i, i8 %.sroa.5.0.extract.trunc.i.i
  %.sroa.0.0.extract.trunc..sroa.7.0.extract.trunc.i.i = select i1 %25, i8 %.sroa.0.0.extract.trunc.i.i, i8 %.sroa.7.0.extract.trunc.i.i
  store i8 %.sroa.7.0.extract.trunc..sroa.0.0.extract.trunc.i.i, ptr %27, align 1
  %28 = load ptr, ptr %3, align 8
  %29 = getelementptr i8, ptr %28, i64 %9
  %30 = getelementptr i8, ptr %29, i64 1
  store i8 %.sroa.5.0.extract.trunc..sroa.3.0.extract.trunc.i.i, ptr %30, align 1
  %31 = load ptr, ptr %3, align 8
  %32 = getelementptr i8, ptr %31, i64 %9
  %33 = getelementptr i8, ptr %32, i64 2
  store i8 %.sroa.3.0.extract.trunc..sroa.5.0.extract.trunc.i.i, ptr %33, align 1
  %34 = load ptr, ptr %3, align 8
  %35 = getelementptr i8, ptr %34, i64 %9
  %36 = getelementptr i8, ptr %35, i64 3
  store i8 %.sroa.0.0.extract.trunc..sroa.7.0.extract.trunc.i.i, ptr %36, align 1
  br label %_ZN5o3dgc12BinaryStream11WriteUInt32EmmNS_15O3DGCStreamTypeE.exit

_ZN5o3dgc12BinaryStream11WriteUInt32EmmNS_15O3DGCStreamTypeE.exit: ; preds = %.preheader.i, %22
  ret i32 0
}